target datalayout = "e-m:e-p270:32:32-p271:32:32-p272:64:64-i64:64-i128:128-f80:128-n8:16:32:64-S128"
target triple = "x86_64-pc-linux-gnu"

%struct.AVFormatContext = type { ptr, ptr, ptr, ptr, ptr, i32, i32, ptr, i32, ptr, i32, ptr, ptr, i64, i64, i64, i32, i32, i32, i64, i64, ptr, i32, i32, ptr, i32, i32, i32, i32, ptr, i64, i32, i32, %struct.AVIOInterruptCB, i32, i32, i32, i32, i64, i32, i32, i32, i32, i32, i32, i32, i32, i32, i32, i32, i32, i64, i32, i32, i32, i32, i32, ptr, ptr, ptr, ptr, i32, ptr, ptr, ptr, ptr, i32, ptr, ptr, i64, ptr, ptr, ptr, i64 }
%struct.AVIOInterruptCB = type { ptr, ptr }
%struct.IEC61937Context = type { ptr, i32, i32, i32, ptr, i32, ptr, i32, i32, i32, [2 x ptr], i32, i32, i32, i32, i32, i16, i32, i32, i32, i32, i32, ptr }

; Function Attrs: nounwind uwtable
define internal void @spdif_deinit(ptr noundef %0) #0 {
  %2 = alloca ptr, align 8
  %3 = alloca ptr, align 8
  %4 = alloca i32, align 4
  store ptr %0, ptr %2, align 8, !tbaa !4
  call void @llvm.lifetime.start.p0(i64 8, ptr %3) #7
  %5 = load ptr, ptr %2, align 8, !tbaa !4
  %6 = getelementptr inbounds nuw %struct.AVFormatContext, ptr %5, i32 0, i32 3
  %7 = load ptr, ptr %6, align 8, !tbaa !9
  store ptr %7, ptr %3, align 8, !tbaa !26
  %8 = load ptr, ptr %3, align 8, !tbaa !26
  %9 = getelementptr inbounds nuw %struct.IEC61937Context, ptr %8, i32 0, i32 4
  call void @av_freep(ptr noundef %9)
  call void @llvm.lifetime.start.p0(i64 4, ptr %4) #7
  store i32 0, ptr %4, align 4, !tbaa !44
  br label %10

10:                                               ; preds = %21, %1
  %11 = load i32, ptr %4, align 4, !tbaa !44
  %12 = sext i32 %11 to i64
  %13 = icmp ult i64 %12, 2
  br i1 %13, label %15, label %14

14:                                               ; preds = %10
  call void @llvm.lifetime.end.p0(i64 4, ptr %4) #7
  br label %24

15:                                               ; preds = %10
  %16 = load ptr, ptr %3, align 8, !tbaa !26
  %17 = getelementptr inbounds nuw %struct.IEC61937Context, ptr %16, i32 0, i32 10
  %18 = load i32, ptr %4, align 4, !tbaa !44
  %19 = sext i32 %18 to i64
  %20 = getelementptr inbounds [2 x ptr], ptr %17, i64 0, i64 %19
  call void @av_freep(ptr noundef %20)
  br label %21

21:                                               ; preds = %15
  %22 = load i32, ptr %4, align 4, !tbaa !44
  %23 = add nsw i32 %22, 1
  store i32 %23, ptr %4, align 4, !tbaa !44
  br label %10, !llvm.loop !63

24:                                               ; preds = %14
  call void @llvm.lifetime.end.p0(i64 8, ptr %3) #7
  ret void
}