; Function Attrs: nounwind uwtable
define internal void @spdif_deinit(ptr noundef readonly captures(none) %0) #0 {
.critedge:
  %1 = getelementptr inbounds nuw i8, ptr %0, i64 24
  %2 = load ptr, ptr %1, align 8, !tbaa !4
  %3 = getelementptr inbounds nuw i8, ptr %2, i64 24
  tail call void @av_freep(ptr noundef nonnull %3) #7
  %4 = getelementptr inbounds nuw i8, ptr %2, i64 64
  tail call void @av_freep(ptr noundef nonnull %4) #7
  %5 = getelementptr inbounds nuw i8, ptr %2, i64 72
  tail call void @av_freep(ptr noundef nonnull %5) #7
  ret void
}